target datalayout = "e-m:e-p270:32:32-p271:32:32-p272:64:64-i64:64-i128:128-f80:128-n8:16:32:64-S128"
target triple = "x86_64-unknown-linux-gnu"

%"class.icu_75::ResourceDataValue" = type <{ %"class.icu_75::ResourceValue", ptr, ptr, i32, %"class.icu_75::ResourceTracer", [3 x i8] }>
%"class.icu_75::ResourceValue" = type { %"class.icu_75::UObject" }
%"class.icu_75::UObject" = type { ptr }
%"class.icu_75::ResourceTracer" = type { i8 }

@_ZL12gPublicTypes = internal constant [16 x i8] c"\00\01\02\03\02\02\00\07\08\08\FF\FF\FF\FF\0E\FF", align 16

; Function Attrs: mustprogress nounwind uwtable
define i32 @res_getPublicType_75(i32 noundef %res) #2 {
entry:
  %res.addr = alloca i32, align 4
  store i32 %res, ptr %res.addr, align 4
  %0 = load i32, ptr %res.addr, align 4
  %shr = lshr i32 %0, 28
  %idxprom = sext i32 %shr to i64
  %arrayidx = getelementptr inbounds [16 x i8], ptr @_ZL12gPublicTypes, i64 0, i64 %idxprom
  %1 = load i8, ptr %arrayidx, align 1
  %conv = sext i8 %1 to i32
  ret i32 %conv
}

; Function Attrs: mustprogress nounwind uwtable
define noundef i32 @_ZNK6icu_7517ResourceDataValue7getTypeEv(ptr noundef nonnull align 8 dereferenceable(29) %this) unnamed_addr #2 align 2 {
entry:
  %this.addr = alloca ptr, align 8
  store ptr %this, ptr %this.addr, align 8
  %this1 = load ptr, ptr %this.addr, align 8
  %res = getelementptr inbounds %"class.icu_75::ResourceDataValue", ptr %this1, i32 0, i32 3
  %0 = load i32, ptr %res, align 8
  %call = call i32 @res_getPublicType_75(i32 noundef %0)
  ret i32 %call
}