; Function Attrs: mustprogress nofree norecurse nosync nounwind willreturn memory(argmem: read) uwtable
define noundef i32 @_ZNK6icu_7517ResourceDataValue7getTypeEv(ptr nocapture noundef nonnull readonly align 8 dereferenceable(29) %this) unnamed_addr #9 align 2 {
entry:
  %res = getelementptr inbounds i8, ptr %this, i64 24
  %0 = load i32, ptr %res, align 8
  %shr.i = lshr i32 %0, 28
  %idxprom.i = zext nneg i32 %shr.i to i64
  %arrayidx.i = getelementptr inbounds [16 x i8], ptr @_ZL12gPublicTypes, i64 0, i64 %idxprom.i
  %1 = load i8, ptr %arrayidx.i, align 1
  %conv.i = sext i8 %1 to i32
  ret i32 %conv.i
}